******************************************************************************
                  TI ARM Linker PC v20.2.6                     
******************************************************************************
>> Linked Fri Apr 28 00:43:21 2023

OUTPUT FILE NAME:   <PROJECT_DUSK.out>
ENTRY POINT SYMBOL: "_c_int00_noargs"  address: 00005855


MEMORY CONFIGURATION

         name            origin    length      used     unused   attr    fill
----------------------  --------  ---------  --------  --------  ----  --------
  RAM                   00000020   ffffffe0  00007f5f  ffff8081  RWIX


SEGMENT ALLOCATION MAP

run origin  load origin   length   init length attrs members
----------  ----------- ---------- ----------- ----- -------
00000020    00000020    00005bdb   00005bdb    r-x
  00000020    00000020    00005a8c   00005a8c    r-x .text
  00005ab0    00005ab0    0000014b   0000014b    r-- .const
00005bfc    00005bfc    000000c4   00000000    rw-
  00005bfc    00005bfc    00000074   00000000    rw- .bss
  00005c70    00005c70    00000050   00000000    rw- .data
00005cc0    00005cc0    00002000   00000000    rw-
  00005cc0    00005cc0    00001000   00000000    rw- .stack
  00006cc0    00006cc0    00001000   00000000    rw- .sysmem
00007cc0    00007cc0    00000058   00000058    r--
  00007cc0    00007cc0    00000058   00000058    r-- .cinit
00008000    00008000    0000026c   00000000    rw-
  00008000    00008000    0000026c   00000000    rw- .vtable


SECTION ALLOCATION MAP

 output                                  attributes/
section   page    origin      length       input sections
--------  ----  ----------  ----------   ----------------
.text      0    00000020    00005a8c     
                  00000020    00000f68     commands.obj (.text)
                  00000f88    00000c20     open_interface.obj (.text)
                  00001ba8    00000a4e     rtsv7M4_T_le_v4SPD16_eabi.lib : _printfi.c.obj (.text:__TI_printfi)
                  000025f6    00000002                                   : _lock.c.obj (.text:_nop)
                  000025f8    000009d0                                   : e_pow.c.obj (.text:pow)
                  00002fc8    00000328     lcd.obj (.text)
                  000032f0    000002f8     ping_template.obj (.text)
                  000035e8    00000270     rtsv7M4_T_le_v4SPD16_eabi.lib : _printfi.c.obj (.text:_pconv_a)
                  00003858    00000260     uart-interrupt.obj (.text)
                  00003ab8    00000248     Timer.obj (.text)
                  00003d00    00000238     servo.obj (.text)
                  00003f38    00000218     adc.obj (.text)
                  00004150    000001d0     rtsv7M4_T_le_v4SPD16_eabi.lib : _printfi.c.obj (.text:_pconv_g)
                  00004320    000001b6                                   : fd_add_t2.asm.obj (.text)
                  000044d6    00000002                                   : div0.asm.obj (.text)
                  000044d8    00000158                                   : e_sqrt.c.obj (.text:sqrt)
                  00004630    0000013c                                   : _printfi.c.obj (.text:_pconv_e)
                  0000476c    00000136                                   : fd_div_t2.asm.obj (.text)
                  000048a2    00000002     --HOLE-- [fill = 0]
                  000048a4    00000124                                   : _printfi.c.obj (.text:fcvt)
                  000049c8    0000011c     main.obj (.text)
                  00004ae4    00000110     rtsv7M4_T_le_v4SPD16_eabi.lib : s_scalbn.c.obj (.text:scalbn)
                  00004bf4    00000100                                   : memory.c.obj (.text:aligned_alloc)
                  00004cf4    000000fc                                   : fd_mul_t2.asm.obj (.text)
                  00004df0    000000e4                                   : memory.c.obj (.text:free)
                  00004ed4    000000b1                                   : _printfi.c.obj (.text:_ltostr)
                  00004f85    00000001     --HOLE-- [fill = 0]
                  00004f86    0000009c                                   : memcpy_t2.asm.obj (.text)
                  00005022    00000096                                   : ull_div_t2.asm.obj (.text)
                  000050b8    00000086                                   : fd_cmp_t2.asm.obj (.text:__aeabi_cdcmple)
                  0000513e    00000086                                   : fd_cmp_t2.asm.obj (.text:__aeabi_cdrcmple)
                  000051c4    00000080     button.obj (.text)
                  00005244    0000007a     rtsv7M4_T_le_v4SPD16_eabi.lib : memset_t2.asm.obj (.text)
                  000052be    00000002     --HOLE-- [fill = 0]
                  000052c0    00000070                                   : memory.c.obj (.text:split)
                  00005330    0000006e                                   : _printfi.c.obj (.text:_mcpy)
                  0000539e    0000006e                                   : fd_tos_t2.asm.obj (.text)
                  0000540c    00000068                                   : copy_decompress_lzss.c.obj (.text:decompress:lzss:__TI_decompress_lzss)
                  00005474    00000064                                   : s_frexp.c.obj (.text:frexp)
                  000054d8    00000056                                   : _printfi.c.obj (.text:_pconv_f)
                  0000552e    00000054                                   : _ltoa.c.obj (.text:__TI_ltoa)
                  00005582    00000052                                   : _printfi.c.obj (.text:_ecpy)
                  000055d4    0000004c                                   : atoi.c.obj (.text:atoi)
                  00005620    00000048                                   : fd_toi_t2.asm.obj (.text)
                  00005668    00000044                                   : autoinit.c.obj (.text:__TI_auto_init_nobinit_nopinit:__TI_auto_init_nobinit_nopinit)
                  000056ac    00000044                                   : fd_tou_t2.asm.obj (.text)
                  000056f0    00000040                                   : sprintf.c.obj (.text:sprintf)
                  00005730    00000040                                   : vsnprintf.c.obj (.text:vsnprintf)
                  00005770    0000003e                                   : _printfi.c.obj (.text:_fcpy)
                  000057ae    00000002     --HOLE-- [fill = 0]
                  000057b0    00000038                                   : memory.c.obj (.text:calloc)
                  000057e8    00000038                                   : fs_tod_t2.asm.obj (.text)
                  00005820    00000034     driverlib.lib : interrupt.obj (.text:IntRegister)
                  00005854    00000034     rtsv7M4_T_le_v4SPD16_eabi.lib : boot_cortex_m.c.obj (.text:_c_int00_noargs:_c_int00_noargs)
                  00005888    00000030                                   : vsnprintf.c.obj (.text:_outs)
                  000058b8    0000002e                                   : i_tofd_t2.asm.obj (.text)
                  000058e6    00000002     --HOLE-- [fill = 0]
                  000058e8    00000028                                   : memory.c.obj (.text:free_list_insert)
                  00005910    00000020                                   : u_tofd_t2.asm.obj (.text)
                  00005930    0000001c                                   : copy_zero_init.c.obj (.text:decompress:ZI:__TI_zero_init_nomemset:__TI_zero_init_nomemset)
                  0000594c    0000001c                                   : memory.c.obj (.text:free_list_remove)
                  00005968    0000001c                                   : memccpy.c.obj (.text:memccpy)
                  00005984    0000001a                                   : s_copysign.c.obj (.text:copysign)
                  0000599e    00000018                                   : vsnprintf.c.obj (.text:_outc)
                  000059b6    00000018                                   : sprintf.c.obj (.text:_outs)
                  000059ce    00000018     open_interface.obj (.text:oi_parseInt)
                  000059e6    00000018     rtsv7M4_T_le_v4SPD16_eabi.lib : strcmp.c.obj (.text:strcmp)
                  000059fe    00000016                                   : strchr.c.obj (.text:strchr)
                  00005a14    00000014                                   : strcpy.c.obj (.text:strcpy)
                  00005a28    00000014                                   : strlen.c.obj (.text:strlen)
                  00005a3c    00000012                                   : wcslen.c.obj (.text:wcslen)
                  00005a4e    00000010     driverlib.lib : interrupt.obj (.text:IntMasterEnable)
                  00005a5e    00000010     lcd.obj (.text:lcd_clear)
                  00005a6e    0000000e     rtsv7M4_T_le_v4SPD16_eabi.lib : copy_decompress_none.c.obj (.text:decompress:none:__TI_decompress_none)
                  00005a7c    0000000c     driverlib.lib : cpu.obj (.text:CPUcpsie)
                  00005a88    0000000a     rtsv7M4_T_le_v4SPD16_eabi.lib : sprintf.c.obj (.text:_outc)
                  00005a92    00000002     --HOLE-- [fill = 0]
                  00005a94    00000008                                   : errno.c.obj (.text:__aeabi_errno_addr)
                  00005a9c    00000008                                   : memory.c.obj (.text:malloc)
                  00005aa4    00000004                                   : pre_init.c.obj (.text:_system_pre_init)
                  00005aa8    00000004                                   : exit.c.obj (.text:abort:abort)

.const     0    00005ab0    0000014b     
                  00005ab0    00000101     rtsv7M4_T_le_v4SPD16_eabi.lib : ctype.c.obj (.const:.string:_ctypes_)
                  00005bb1    00000004     lcd.obj (.const:.string:lineAddress$1)
                  00005bb5    00000003     --HOLE-- [fill = 0]
                  00005bb8    00000030     rtsv7M4_T_le_v4SPD16_eabi.lib : e_pow.c.obj (.const:$O1$$)
                  00005be8    0000000f     open_interface.obj (.const:.string:$P$T0$3)
                  00005bf7    00000004     lcd.obj (.const:.string:lineAddresses$2)

.bss       0    00005bfc    00000074     UNINITIALIZED
                  00005bfc    00000054     lcd.obj (.bss:lastbuffer$3)
                  00005c50    00000018     open_interface.obj (.bss:firmware$2)
                  00005c68    00000004     (.common:_timeout_ticks)
                  00005c6c    00000004     (.common:match_val)

.data      0    00005c70    00000050     UNINITIALIZED
                  00005c70    00000020     open_interface.obj (.data)
                  00005c90    0000000d     ping_template.obj (.data)
                  00005c9d    00000001     Timer.obj (.data)
                  00005c9e    00000001     button.obj (.data)
                  00005c9f    00000001     --HOLE--
                  00005ca0    00000008     rtsv7M4_T_le_v4SPD16_eabi.lib : _lock.c.obj (.data:$O1$$)
                  00005ca8    00000008                                   : memory.c.obj (.data:$O1$$)
                  00005cb0    00000008     uart-interrupt.obj (.data)
                  00005cb8    00000004     rtsv7M4_T_le_v4SPD16_eabi.lib : errno.c.obj (.data)
                  00005cbc    00000004     servo.obj (.data)

.cinit     0    00007cc0    00000058     
                  00007cc0    00000024     (.cinit..data.load) [load image, compression = lzss]
                  00007ce4    0000000c     (__TI_handler_table)
                  00007cf0    00000008     (.cinit..bss.load) [load image, compression = zero_init]
                  00007cf8    00000008     (.cinit..vtable.load) [load image, compression = zero_init]
                  00007d00    00000018     (__TI_cinit_table)

.init_array 
*          0    00000020    00000000     UNINITIALIZED

__llvm_prf_cnts 
*          0    00000020    00000000     UNINITIALIZED

.stack     0    00005cc0    00001000     UNINITIALIZED
                  00005cc0    00000004     rtsv7M4_T_le_v4SPD16_eabi.lib : boot_cortex_m.c.obj (.stack)
                  00005cc4    00000ffc     --HOLE--

.sysmem    0    00006cc0    00001000     UNINITIALIZED
                  00006cc0    00000010     rtsv7M4_T_le_v4SPD16_eabi.lib : memory.c.obj (.sysmem)
                  00006cd0    00000ff0     --HOLE--

.vtable    0    00008000    0000026c     UNINITIALIZED
                  00008000    0000026c     driverlib.lib : interrupt.obj (.vtable)

MODULE SUMMARY

       Module                       code    ro data   rw data
       ------                       ----    -------   -------
    .\
       commands.obj                 3944    0         0      
       open_interface.obj           3128    15        56     
       lcd.obj                      824     8         84     
       ping_template.obj            760     0         13     
       uart-interrupt.obj           608     0         8      
       Timer.obj                    584     0         5      
       servo.obj                    568     0         8      
       adc.obj                      536     0         0      
       main.obj                     284     0         0      
       button.obj                   128     0         1      
    +--+----------------------------+-------+---------+---------+
       Total:                       11364   23        175    
                                                             
    C:/ti/TivaWare_C_Series-2.2.0.295/driverlib/ccs/Debug/driverlib.lib
       interrupt.obj                68      0         620    
       cpu.obj                      12      0         0      
    +--+----------------------------+-------+---------+---------+
       Total:                       80      0         620    
                                                             
    C:\ti\ccs1200\ccs\tools\compiler\ti-cgt-arm_20.2.6.LTS\lib\rtsv7M4_T_le_v4SPD16_eabi.lib
       _printfi.c.obj               4851    0         0      
       e_pow.c.obj                  2512    48        0      
       memory.c.obj                 728     0         8      
       fd_add_t2.asm.obj            438     0         0      
       e_sqrt.c.obj                 344     0         0      
       fd_div_t2.asm.obj            310     0         0      
       s_scalbn.c.obj               272     0         0      
       fd_cmp_t2.asm.obj            268     0         0      
       ctype.c.obj                  0       257       0      
       fd_mul_t2.asm.obj            252     0         0      
       memcpy_t2.asm.obj            156     0         0      
       ull_div_t2.asm.obj           150     0         0      
       vsnprintf.c.obj              136     0         0      
       memset_t2.asm.obj            122     0         0      
       fd_tos_t2.asm.obj            110     0         0      
       copy_decompress_lzss.c.obj   104     0         0      
       s_frexp.c.obj                100     0         0      
       sprintf.c.obj                98      0         0      
       _ltoa.c.obj                  84      0         0      
       atoi.c.obj                   76      0         0      
       fd_toi_t2.asm.obj            72      0         0      
       autoinit.c.obj               68      0         0      
       fd_tou_t2.asm.obj            68      0         0      
       fs_tod_t2.asm.obj            56      0         0      
       boot_cortex_m.c.obj          52      0         0      
       i_tofd_t2.asm.obj            46      0         0      
       u_tofd_t2.asm.obj            32      0         0      
       copy_zero_init.c.obj         28      0         0      
       memccpy.c.obj                28      0         0      
       s_copysign.c.obj             26      0         0      
       strcmp.c.obj                 24      0         0      
       strchr.c.obj                 22      0         0      
       strcpy.c.obj                 20      0         0      
       strlen.c.obj                 20      0         0      
       wcslen.c.obj                 18      0         0      
       copy_decompress_none.c.obj   14      0         0      
       errno.c.obj                  8       0         4      
       _lock.c.obj                  2       0         8      
       exit.c.obj                   4       0         0      
       pre_init.c.obj               4       0         0      
       div0.asm.obj                 2       0         0      
    +--+----------------------------+-------+---------+---------+
       Total:                       11725   305       20     
                                                             
       Heap:                        0       0         4096   
       Stack:                       0       0         4096   
       Linker Generated:            0       88        0      
    +--+----------------------------+-------+---------+---------+
       Grand Total:                 23169   416       9007   


LINKER GENERATED COPY TABLES

__TI_cinit_table @ 00007d00 records: 3, size/record: 8, table size: 24
	.data: load addr=00007cc0, load size=00000024 bytes, run addr=00005c70, run size=00000050 bytes, compression=lzss
	.bss: load addr=00007cf0, load size=00000008 bytes, run addr=00005bfc, run size=00000074 bytes, compression=zero_init
	.vtable: load addr=00007cf8, load size=00000008 bytes, run addr=00008000, run size=0000026c bytes, compression=zero_init


LINKER GENERATED HANDLER TABLE

__TI_handler_table @ 00007ce4 records: 3, size/record: 4, table size: 12
	index: 0, handler: __TI_decompress_lzss
	index: 1, handler: __TI_decompress_none
	index: 2, handler: __TI_zero_init


GLOBAL SYMBOLS: SORTED ALPHABETICALLY BY Name 

address   name                          
-------   ----                          
00005aa9  C$$EXIT                       
00005a7d  CPUcpsie                      
00005c98  CURRENT_TIME                  
00005c94  END_TIME                      
000018df  GPIOF_Handler                 
00005a4f  IntMasterEnable               
00005821  IntRegister                   
00005c90  START_TIME                    
00005c9c  STATE                         
0000346f  TIMER3B_Handler               
00003991  UART1_Handler                 
00006cc0  __STACK_END                   
00001000  __STACK_SIZE                  
00001000  __SYSMEM_SIZE                 
00007d00  __TI_CINIT_Base               
00007d18  __TI_CINIT_Limit              
00007ce4  __TI_Handler_Table_Base       
00007cf0  __TI_Handler_Table_Limit      
00005669  __TI_auto_init_nobinit_nopinit
0000540d  __TI_decompress_lzss          
00005a6f  __TI_decompress_none          
0000552f  __TI_ltoa                     
ffffffff  __TI_pprof_out_hndl           
00001ba9  __TI_printfi                  
ffffffff  __TI_prof_data_size           
ffffffff  __TI_prof_data_start          
00007cc0  __TI_static_base__            
00005931  __TI_zero_init_nomemset       
000050b9  __aeabi_cdcmpeq               
000050b9  __aeabi_cdcmple               
0000513f  __aeabi_cdrcmple              
0000539f  __aeabi_d2f                   
00005621  __aeabi_d2iz                  
000056ad  __aeabi_d2uiz                 
0000432b  __aeabi_dadd                  
0000476d  __aeabi_ddiv                  
00004cf5  __aeabi_dmul                  
00004321  __aeabi_dsub                  
00005a95  __aeabi_errno_addr            
000057e9  __aeabi_f2d                   
000058b9  __aeabi_i2d                   
000044d7  __aeabi_idiv0                 
000044d7  __aeabi_ldiv0                 
00005245  __aeabi_memclr                
00005245  __aeabi_memclr4               
00005245  __aeabi_memclr8               
00004f87  __aeabi_memcpy                
00004f87  __aeabi_memcpy4               
00004f87  __aeabi_memcpy8               
00005247  __aeabi_memset                
00005247  __aeabi_memset4               
00005247  __aeabi_memset8               
00005911  __aeabi_ui2d                  
00005023  __aeabi_uldivmod              
ffffffff  __binit__                     
ffffffff  __c_args__                    
UNDEFED   __mpu_init                    
00005cc0  __stack                       
00000020  __start___llvm_prf_cnts       
00000020  __stop___llvm_prf_cnts        
00005855  _c_int00_noargs               
00005ab0  _ctypes_                      
00005ca0  _lock                         
000025f7  _nop                          
00005c9d  _running                      
00006cc0  _sys_memory                   
UNDEFED   _system_post_cinit            
00005aa5  _system_pre_init              
00005c68  _timeout_ticks                
00005ca4  _unlock                       
00005aa9  abort                         
00003f39  adc_init                      
00003fbd  adc_read                      
00004bf5  aligned_alloc                 
000055d5  atoi                          
ffffffff  binit                         
000051f7  button_getButton              
000051c5  button_init                   
000057b1  calloc                        
00000781  check_boundary                
0000073d  check_bump                    
000007f9  check_cliff                   
00000d1d  collision_detect              
00005cb0  command_byte                  
00005cb4  command_flag                  
00005985  copysign                      
00005985  copysignl                     
00005cb8  errno                         
00004df1  free                          
00005475  frexp                         
00005475  frexpl                        
00008000  g_pfnRAMVectors               
000034db  get_pulseWidth                
000034e7  get_pulseWidth_millis         
0000169b  go_charge                     
00003fe9  ir_getDistance                
00000963  ir_ping_scan                  
000040cb  ir_scan                       
0000084f  ir_sweep                      
00005a5f  lcd_clear                     
0000319d  lcd_gotoLine                  
00003005  lcd_init                      
00003203  lcd_printf                    
000030c5  lcd_putc                      
000030fd  lcd_puts                      
00002fc9  lcd_reverseNibble             
0000311b  lcd_sendCommand               
00003159  lcd_sendNibble                
000031c5  lcd_setCursorPos              
00004ae5  ldexp                         
00004ae5  ldexpl                        
000049c9  main                          
00005a9d  malloc                        
00005c6c  match_val                     
00004bf5  memalign                      
00005969  memccpy                       
00004f87  memcpy                        
0000524d  memset                        
00005c70  motor_cal_factor_L            
00005c74  motor_cal_factor_R            
00000509  move_backward                 
000005a1  move_backward_manual          
00000021  move_forward                  
00000283  move_forward_manual           
00000a23  object_detect                 
00000f89  oi_alloc                      
000017c5  oi_checkFirmware              
00000fe3  oi_close                      
00000f95  oi_free                       
00001b09  oi_getMotorCalibrationLeft    
00001b1d  oi_getMotorCalibrationRight   
00000fcd  oi_init                       
00000fa5  oi_init_noupdate              
00001631  oi_loadSong                   
000059cf  oi_parseInt                   
00001047  oi_parsePacket                
00001687  oi_play_song                  
00001567  oi_setLeds                    
00001acd  oi_setMotorCalibration        
000015ab  oi_setWheels                  
0000186d  oi_shutoff_init               
000016a9  oi_uartInit                   
0000174d  oi_uartReceive                
00001793  oi_uartSendBuff               
00001731  oi_uartSendChar               
00001775  oi_uartSendStr                
00000ff5  oi_update                     
000034ab  ping_getDistance              
000032f1  ping_init                     
00003507  ping_scan                     
000008e3  ping_sweep                    
000033cf  ping_trigger                  
000025f9  pow                           
000025f9  powl                          
00005cbc  pwm_period                    
00004ae5  scalbn                        
00004ae5  scalbnl                       
00003dd5  servo_calibrate               
00003d01  servo_init                    
00003d8f  servo_move                    
000056f1  sprintf                       
000044d9  sqrt                          
000044d9  sqrtl                         
00000725  stop_manual                   
000059ff  strchr                        
000059e7  strcmp                        
00005a15  strcpy                        
00005a29  strlen                        
00003bd7  timer_getMicros               
00003b7f  timer_getMillis               
00003ab9  timer_init                    
00003b5b  timer_pause                   
00003b6d  timer_resume                  
00003b31  timer_stop                    
00003c31  timer_waitMicros              
00003c63  timer_waitMillis              
000005bf  turn_left                     
0000064f  turn_left_manual              
00000675  turn_right                    
00000705  turn_right_manual             
00003859  uart_interrupt_init           
00003943  uart_receive                  
00003927  uart_sendChar                 
00003969  uart_sendStr                  
00005731  vsnprintf                     
00005a3d  wcslen                        


GLOBAL SYMBOLS: SORTED BY Symbol Address 

address   name                          
-------   ----                          
00000020  __start___llvm_prf_cnts       
00000020  __stop___llvm_prf_cnts        
00000021  move_forward                  
00000283  move_forward_manual           
00000509  move_backward                 
000005a1  move_backward_manual          
000005bf  turn_left                     
0000064f  turn_left_manual              
00000675  turn_right                    
00000705  turn_right_manual             
00000725  stop_manual                   
0000073d  check_bump                    
00000781  check_boundary                
000007f9  check_cliff                   
0000084f  ir_sweep                      
000008e3  ping_sweep                    
00000963  ir_ping_scan                  
00000a23  object_detect                 
00000d1d  collision_detect              
00000f89  oi_alloc                      
00000f95  oi_free                       
00000fa5  oi_init_noupdate              
00000fcd  oi_init                       
00000fe3  oi_close                      
00000ff5  oi_update                     
00001000  __STACK_SIZE                  
00001000  __SYSMEM_SIZE                 
00001047  oi_parsePacket                
00001567  oi_setLeds                    
000015ab  oi_setWheels                  
00001631  oi_loadSong                   
00001687  oi_play_song                  
0000169b  go_charge                     
000016a9  oi_uartInit                   
00001731  oi_uartSendChar               
0000174d  oi_uartReceive                
00001775  oi_uartSendStr                
00001793  oi_uartSendBuff               
000017c5  oi_checkFirmware              
0000186d  oi_shutoff_init               
000018df  GPIOF_Handler                 
00001acd  oi_setMotorCalibration        
00001b09  oi_getMotorCalibrationLeft    
00001b1d  oi_getMotorCalibrationRight   
00001ba9  __TI_printfi                  
000025f7  _nop                          
000025f9  pow                           
000025f9  powl                          
00002fc9  lcd_reverseNibble             
00003005  lcd_init                      
000030c5  lcd_putc                      
000030fd  lcd_puts                      
0000311b  lcd_sendCommand               
00003159  lcd_sendNibble                
0000319d  lcd_gotoLine                  
000031c5  lcd_setCursorPos              
00003203  lcd_printf                    
000032f1  ping_init                     
000033cf  ping_trigger                  
0000346f  TIMER3B_Handler               
000034ab  ping_getDistance              
000034db  get_pulseWidth                
000034e7  get_pulseWidth_millis         
00003507  ping_scan                     
00003859  uart_interrupt_init           
00003927  uart_sendChar                 
00003943  uart_receive                  
00003969  uart_sendStr                  
00003991  UART1_Handler                 
00003ab9  timer_init                    
00003b31  timer_stop                    
00003b5b  timer_pause                   
00003b6d  timer_resume                  
00003b7f  timer_getMillis               
00003bd7  timer_getMicros               
00003c31  timer_waitMicros              
00003c63  timer_waitMillis              
00003d01  servo_init                    
00003d8f  servo_move                    
00003dd5  servo_calibrate               
00003f39  adc_init                      
00003fbd  adc_read                      
00003fe9  ir_getDistance                
000040cb  ir_scan                       
00004321  __aeabi_dsub                  
0000432b  __aeabi_dadd                  
000044d7  __aeabi_idiv0                 
000044d7  __aeabi_ldiv0                 
000044d9  sqrt                          
000044d9  sqrtl                         
0000476d  __aeabi_ddiv                  
000049c9  main                          
00004ae5  ldexp                         
00004ae5  ldexpl                        
00004ae5  scalbn                        
00004ae5  scalbnl                       
00004bf5  aligned_alloc                 
00004bf5  memalign                      
00004cf5  __aeabi_dmul                  
00004df1  free                          
00004f87  __aeabi_memcpy                
00004f87  __aeabi_memcpy4               
00004f87  __aeabi_memcpy8               
00004f87  memcpy                        
00005023  __aeabi_uldivmod              
000050b9  __aeabi_cdcmpeq               
000050b9  __aeabi_cdcmple               
0000513f  __aeabi_cdrcmple              
000051c5  button_init                   
000051f7  button_getButton              
00005245  __aeabi_memclr                
00005245  __aeabi_memclr4               
00005245  __aeabi_memclr8               
00005247  __aeabi_memset                
00005247  __aeabi_memset4               
00005247  __aeabi_memset8               
0000524d  memset                        
0000539f  __aeabi_d2f                   
0000540d  __TI_decompress_lzss          
00005475  frexp                         
00005475  frexpl                        
0000552f  __TI_ltoa                     
000055d5  atoi                          
00005621  __aeabi_d2iz                  
00005669  __TI_auto_init_nobinit_nopinit
000056ad  __aeabi_d2uiz                 
000056f1  sprintf                       
00005731  vsnprintf                     
000057b1  calloc                        
000057e9  __aeabi_f2d                   
00005821  IntRegister                   
00005855  _c_int00_noargs               
000058b9  __aeabi_i2d                   
00005911  __aeabi_ui2d                  
00005931  __TI_zero_init_nomemset       
00005969  memccpy                       
00005985  copysign                      
00005985  copysignl                     
000059cf  oi_parseInt                   
000059e7  strcmp                        
000059ff  strchr                        
00005a15  strcpy                        
00005a29  strlen                        
00005a3d  wcslen                        
00005a4f  IntMasterEnable               
00005a5f  lcd_clear                     
00005a6f  __TI_decompress_none          
00005a7d  CPUcpsie                      
00005a95  __aeabi_errno_addr            
00005a9d  malloc                        
00005aa5  _system_pre_init              
00005aa9  C$$EXIT                       
00005aa9  abort                         
00005ab0  _ctypes_                      
00005c68  _timeout_ticks                
00005c6c  match_val                     
00005c70  motor_cal_factor_L            
00005c74  motor_cal_factor_R            
00005c90  START_TIME                    
00005c94  END_TIME                      
00005c98  CURRENT_TIME                  
00005c9c  STATE                         
00005c9d  _running                      
00005ca0  _lock                         
00005ca4  _unlock                       
00005cb0  command_byte                  
00005cb4  command_flag                  
00005cb8  errno                         
00005cbc  pwm_period                    
00005cc0  __stack                       
00006cc0  __STACK_END                   
00006cc0  _sys_memory                   
00007cc0  __TI_static_base__            
00007ce4  __TI_Handler_Table_Base       
00007cf0  __TI_Handler_Table_Limit      
00007d00  __TI_CINIT_Base               
00007d18  __TI_CINIT_Limit              
00008000  g_pfnRAMVectors               
ffffffff  __TI_pprof_out_hndl           
ffffffff  __TI_prof_data_size           
ffffffff  __TI_prof_data_start          
ffffffff  __binit__                     
ffffffff  __c_args__                    
ffffffff  binit                         
UNDEFED   __mpu_init                    
UNDEFED   _system_post_cinit            

[186 symbols]
